target datalayout = "e-m:e-p270:32:32-p271:32:32-p272:64:64-i64:64-i128:128-f80:128-n8:16:32:64-S128"
target triple = "x86_64-pc-linux-gnu"

@.str.25 = private unnamed_addr constant [18 x i8] c"syslog.setlogmask\00", align 1
@.str.26 = private unnamed_addr constant [2 x i8] c"l\00", align 1

; Function Attrs: nounwind uwtable
define internal i64 @syslog_setlogmask_impl(ptr noundef %0, i64 noundef %1) #0 {
  %3 = alloca i64, align 8
  %4 = alloca ptr, align 8
  %5 = alloca i64, align 8
  store ptr %0, ptr %4, align 8, !tbaa !3
  store i64 %1, ptr %5, align 8, !tbaa !10
  %6 = load i64, ptr %5, align 8, !tbaa !10
  %7 = call i32 (ptr, ptr, ...) @PySys_Audit(ptr noundef @.str.25, ptr noundef @.str.26, i64 noundef %6)
  %8 = icmp slt i32 %7, 0
  br i1 %8, label %9, label %10

9:                                                ; preds = %2
  store i64 -1, ptr %3, align 8
  br label %15

10:                                               ; preds = %2
  %11 = load i64, ptr %5, align 8, !tbaa !10
  %12 = trunc i64 %11 to i32
  %13 = call i32 @setlogmask(i32 noundef %12) #6
  %14 = sext i32 %13 to i64
  store i64 %14, ptr %3, align 8
  br label %15

15:                                               ; preds = %10, %9
  %16 = load i64, ptr %3, align 8
  ret i64 %16
}

; Function Attrs: nounwind uwtable
define internal ptr @syslog_setlogmask(ptr noundef %0, ptr noundef %1) #0 {
  %3 = alloca ptr, align 8
  %4 = alloca ptr, align 8
  %5 = alloca ptr, align 8
  %6 = alloca i64, align 8
  %7 = alloca i64, align 8
  store ptr %0, ptr %3, align 8, !tbaa !3
  store ptr %1, ptr %4, align 8, !tbaa !3
  call void @llvm.lifetime.start.p0(i64 8, ptr %5) #6
  store ptr null, ptr %5, align 8, !tbaa !3
  call void @llvm.lifetime.start.p0(i64 8, ptr %6) #6
  call void @llvm.lifetime.start.p0(i64 8, ptr %7) #6
  %8 = load ptr, ptr %4, align 8, !tbaa !3
  %9 = call i64 @PyLong_AsLong(ptr noundef %8)
  store i64 %9, ptr %6, align 8, !tbaa !10
  %10 = load i64, ptr %6, align 8, !tbaa !10
  %11 = icmp eq i64 %10, -1
  br i1 %11, label %12, label %16

12:                                               ; preds = %2
  %13 = call ptr @PyErr_Occurred()
  %14 = icmp ne ptr %13, null
  br i1 %14, label %15, label %16

15:                                               ; preds = %12
  br label %29

16:                                               ; preds = %12, %2
  %17 = load ptr, ptr %3, align 8, !tbaa !3
  %18 = load i64, ptr %6, align 8, !tbaa !10
  %19 = call i64 @syslog_setlogmask_impl(ptr noundef %17, i64 noundef %18)
  store i64 %19, ptr %7, align 8, !tbaa !10
  %20 = load i64, ptr %7, align 8, !tbaa !10
  %21 = icmp eq i64 %20, -1
  br i1 %21, label %22, label %26

22:                                               ; preds = %16
  %23 = call ptr @PyErr_Occurred()
  %24 = icmp ne ptr %23, null
  br i1 %24, label %25, label %26

25:                                               ; preds = %22
  br label %29

26:                                               ; preds = %22, %16
  %27 = load i64, ptr %7, align 8, !tbaa !10
  %28 = call ptr @PyLong_FromLong(i64 noundef %27)
  store ptr %28, ptr %5, align 8, !tbaa !3
  br label %29

29:                                               ; preds = %26, %25, %15
  %30 = load ptr, ptr %5, align 8, !tbaa !3
  call void @llvm.lifetime.end.p0(i64 8, ptr %7) #6
  call void @llvm.lifetime.end.p0(i64 8, ptr %6) #6
  call void @llvm.lifetime.end.p0(i64 8, ptr %5) #6
  ret ptr %30
}