; Function Attrs: nounwind uwtable
define internal ptr @syslog_setlogmask(ptr readnone captures(none) %0, ptr noundef %1) #0 {
  %3 = tail call i64 @PyLong_AsLong(ptr noundef %1) #5
  %4 = icmp eq i64 %3, -1
  br i1 %4, label %9, label %.split

.split:                                           ; preds = %2
  %5 = tail call i32 (ptr, ptr, ...) @PySys_Audit(ptr noundef nonnull @.str.25, ptr noundef nonnull @.str.26, i64 noundef %3) #5
  %6 = icmp slt i32 %5, 0
  br i1 %6, label %syslog_setlogmask_impl.exit.thread, label %7

7:                                                ; preds = %.split
  %8 = trunc i64 %3 to i32
  br label %syslog_setlogmask_impl.exit

9:                                                ; preds = %2
  %10 = tail call ptr @PyErr_Occurred() #5
  %.not = icmp eq ptr %10, null
  br i1 %.not, label %.split6, label %18

.split6:                                          ; preds = %9
  %11 = tail call i32 (ptr, ptr, ...) @PySys_Audit(ptr noundef nonnull @.str.25, ptr noundef nonnull @.str.26, i64 noundef -1) #5
  %12 = icmp slt i32 %11, 0
  br i1 %12, label %syslog_setlogmask_impl.exit.thread, label %syslog_setlogmask_impl.exit

syslog_setlogmask_impl.exit:                      ; preds = %.split6, %7
  %.sink = phi i32 [ %8, %7 ], [ -1, %.split6 ]
  %13 = tail call i32 @setlogmask(i32 noundef %.sink) #5
  %phi.call = sext i32 %13 to i64
  %14 = icmp eq i32 %13, -1
  br i1 %14, label %syslog_setlogmask_impl.exit.thread, label %16

syslog_setlogmask_impl.exit.thread:               ; preds = %.split6, %.split, %syslog_setlogmask_impl.exit
  %15 = tail call ptr @PyErr_Occurred() #5
  %.not8 = icmp eq ptr %15, null
  br i1 %.not8, label %16, label %18

16:                                               ; preds = %syslog_setlogmask_impl.exit.thread, %syslog_setlogmask_impl.exit
  %phi.call12 = phi i64 [ -1, %syslog_setlogmask_impl.exit.thread ], [ %phi.call, %syslog_setlogmask_impl.exit ]
  %17 = tail call ptr @PyLong_FromLong(i64 noundef %phi.call12) #5
  br label %18

18:                                               ; preds = %syslog_setlogmask_impl.exit.thread, %9, %16
  %.0 = phi ptr [ null, %9 ], [ null, %syslog_setlogmask_impl.exit.thread ], [ %17, %16 ]
  ret ptr %.0
}